; Function Attrs: mustprogress uwtable
define void @_ZNK10open_spiel6catch_10CatchState14ActionToStringB5cxx11Eil(ptr dead_on_unwind noalias writable sret(%"class.std::__cxx11::basic_string") align 8 %0, ptr nocapture nonnull readnone align 8 %1, i32 noundef %2, i64 noundef %3) unnamed_addr #3 align 2 personality ptr @__gxx_personality_v0 {
  %5 = alloca %"class.absl::debian2::AlphaNum", align 8
  %6 = alloca %"class.absl::debian2::AlphaNum", align 8
  %7 = alloca i32, align 4
  %8 = alloca i32, align 4
  %9 = alloca %"class.std::__cxx11::basic_string", align 8
  %10 = alloca i32, align 4
  %11 = alloca %"class.std::allocator", align 1
  %12 = alloca %"class.std::allocator", align 1
  %13 = alloca %"class.std::allocator", align 1
  %14 = alloca %"class.std::__cxx11::basic_string", align 8
  %15 = alloca %"class.std::allocator", align 1
  %16 = icmp eq i32 %2, -1
  br i1 %16, label %_ZN4absl7debian28AlphaNumC2EPKc.exit, label %26

_ZN4absl7debian28AlphaNumC2EPKc.exit:             ; preds = %4
  store ptr @.str.12, ptr %5, align 8
  %17 = getelementptr inbounds nuw i8, ptr %5, i64 8
  store i64 20, ptr %17, align 8
  %18 = getelementptr inbounds nuw i8, ptr %6, i64 16
  %19 = call noundef ptr @_ZN4absl7debian216numbers_internal15FastIntToBufferElPc(i64 noundef %3, ptr noundef nonnull %18)
  %20 = ptrtoint ptr %19 to i64
  %21 = ptrtoint ptr %18 to i64
  %22 = sub i64 %20, %21
  store ptr %18, ptr %6, align 8
  %23 = icmp sgt i64 %22, -1
  br i1 %23, label %_ZN4absl7debian28AlphaNumC2El.exit, label %24

24:                                               ; preds = %_ZN4absl7debian28AlphaNumC2EPKc.exit
  call void @llvm.trap()
  unreachable

_ZN4absl7debian28AlphaNumC2El.exit:               ; preds = %_ZN4absl7debian28AlphaNumC2EPKc.exit
  %25 = getelementptr inbounds nuw i8, ptr %6, i64 8
  store i64 %22, ptr %25, align 8
  call void @_ZN4absl7debian26StrCatB5cxx11ERKNS0_8AlphaNumES3_(ptr dead_on_unwind writable sret(%"class.std::__cxx11::basic_string") align 8 %0, ptr noundef nonnull align 8 dereferenceable(48) %5, ptr noundef nonnull align 8 dereferenceable(48) %6)
  br label %59

26:                                               ; preds = %4
  store i32 %2, ptr %7, align 4
  store i32 0, ptr %8, align 4
  %27 = icmp eq i32 %2, 0
  br i1 %27, label %32, label %28

28:                                               ; preds = %26
  store i32 114, ptr %10, align 4
  call void @_ZN10open_spiel8internal11SpielStrCatIJRA130_KcRA2_S2_iS6_RA12_S2_RA8_S2_RA4_S2_RiRA7_S2_SD_EEENSt7__cxx1112basic_stringIcSt11char_traitsIcESaIcEEEDpOT_(ptr dead_on_unwind nonnull writable sret(%"class.std::__cxx11::basic_string") align 8 %9, ptr noundef nonnull align 1 dereferenceable(130) @.str.7, ptr noundef nonnull align 1 dereferenceable(2) @.str.8, ptr noundef nonnull align 4 dereferenceable(4) %10, ptr noundef nonnull align 1 dereferenceable(2) @.str.13, ptr noundef nonnull align 1 dereferenceable(12) @.str.14, ptr noundef nonnull align 1 dereferenceable(8) @.str.15, ptr noundef nonnull align 1 dereferenceable(4) @.str.16, ptr noundef nonnull align 4 dereferenceable(4) %7, ptr noundef nonnull align 1 dereferenceable(7) @.str.17, ptr noundef nonnull align 4 dereferenceable(4) %8)
  invoke void @_ZN10open_spiel15SpielFatalErrorERKNSt7__cxx1112basic_stringIcSt11char_traitsIcESaIcEEE(ptr noundef nonnull align 8 dereferenceable(32) %9) #23
          to label %29 unwind label %30

29:                                               ; preds = %28
  unreachable

30:                                               ; preds = %28
  %31 = landingpad { ptr, i32 }
          cleanup
  call void @_ZNSt7__cxx1112basic_stringIcSt11char_traitsIcESaIcEED1Ev(ptr noundef nonnull align 8 dereferenceable(32) %9) #24
  br label %60

32:                                               ; preds = %26
  switch i64 %3, label %51 [
    i64 0, label %33
    i64 1, label %39
    i64 2, label %45
  ]

33:                                               ; preds = %32
  call void @_ZNSaIcEC1Ev(ptr noundef nonnull align 1 dereferenceable(1) %11) #24
  %34 = invoke noundef ptr @_ZNSt7__cxx1112basic_stringIcSt11char_traitsIcESaIcEE13_M_local_dataEv(ptr noundef nonnull align 8 dereferenceable(32) %0)
          to label %.noexc unwind label %37

.noexc:                                           ; preds = %33
  invoke void @_ZNSt7__cxx1112basic_stringIcSt11char_traitsIcESaIcEE12_Alloc_hiderC1EPcRKS3_(ptr noundef nonnull align 8 dereferenceable(8) %0, ptr noundef %34, ptr noundef nonnull align 1 dereferenceable(1) %11)
          to label %.noexc10 unwind label %37

.noexc10:                                         ; preds = %.noexc
  invoke void @_ZNSt7__cxx1112basic_stringIcSt11char_traitsIcESaIcEE12_M_constructIPKcEEvT_S8_St20forward_iterator_tag(ptr noundef nonnull align 8 dereferenceable(32) %0, ptr noundef nonnull @.str.18, ptr noundef nonnull getelementptr inbounds (i8, ptr @.str.18, i64 4))
          to label %_ZNSt7__cxx1112basic_stringIcSt11char_traitsIcESaIcEEC2IS3_EEPKcRKS3_.exit unwind label %35

35:                                               ; preds = %.noexc10
  %36 = landingpad { ptr, i32 }
          cleanup
  call void @_ZNSaIcED2Ev(ptr noundef nonnull align 1 dereferenceable(1) %0) #24
  br label %.body

_ZNSt7__cxx1112basic_stringIcSt11char_traitsIcESaIcEEC2IS3_EEPKcRKS3_.exit: ; preds = %.noexc10
  call void @_ZNSaIcED1Ev(ptr noundef nonnull align 1 dereferenceable(1) %11) #24
  br label %59

37:                                               ; preds = %.noexc, %33
  %38 = landingpad { ptr, i32 }
          cleanup
  br label %.body

.body:                                            ; preds = %35, %37
  %eh.lpad-body = phi { ptr, i32 } [ %38, %37 ], [ %36, %35 ]
  call void @_ZNSaIcED1Ev(ptr noundef nonnull align 1 dereferenceable(1) %11) #24
  br label %60

39:                                               ; preds = %32
  call void @_ZNSaIcEC1Ev(ptr noundef nonnull align 1 dereferenceable(1) %12) #24
  %40 = invoke noundef ptr @_ZNSt7__cxx1112basic_stringIcSt11char_traitsIcESaIcEE13_M_local_dataEv(ptr noundef nonnull align 8 dereferenceable(32) %0)
          to label %.noexc11 unwind label %43

.noexc11:                                         ; preds = %39
  invoke void @_ZNSt7__cxx1112basic_stringIcSt11char_traitsIcESaIcEE12_Alloc_hiderC1EPcRKS3_(ptr noundef nonnull align 8 dereferenceable(8) %0, ptr noundef %40, ptr noundef nonnull align 1 dereferenceable(1) %12)
          to label %.noexc12 unwind label %43

.noexc12:                                         ; preds = %.noexc11
  invoke void @_ZNSt7__cxx1112basic_stringIcSt11char_traitsIcESaIcEE12_M_constructIPKcEEvT_S8_St20forward_iterator_tag(ptr noundef nonnull align 8 dereferenceable(32) %0, ptr noundef nonnull @.str.19, ptr noundef nonnull getelementptr inbounds (i8, ptr @.str.19, i64 4))
          to label %_ZNSt7__cxx1112basic_stringIcSt11char_traitsIcESaIcEEC2IS3_EEPKcRKS3_.exit15 unwind label %41

41:                                               ; preds = %.noexc12
  %42 = landingpad { ptr, i32 }
          cleanup
  call void @_ZNSaIcED2Ev(ptr noundef nonnull align 1 dereferenceable(1) %0) #24
  br label %.body13

_ZNSt7__cxx1112basic_stringIcSt11char_traitsIcESaIcEEC2IS3_EEPKcRKS3_.exit15: ; preds = %.noexc12
  call void @_ZNSaIcED1Ev(ptr noundef nonnull align 1 dereferenceable(1) %12) #24
  br label %59

43:                                               ; preds = %.noexc11, %39
  %44 = landingpad { ptr, i32 }
          cleanup
  br label %.body13

.body13:                                          ; preds = %41, %43
  %eh.lpad-body14 = phi { ptr, i32 } [ %44, %43 ], [ %42, %41 ]
  call void @_ZNSaIcED1Ev(ptr noundef nonnull align 1 dereferenceable(1) %12) #24
  br label %60

45:                                               ; preds = %32
  call void @_ZNSaIcEC1Ev(ptr noundef nonnull align 1 dereferenceable(1) %13) #24
  %46 = invoke noundef ptr @_ZNSt7__cxx1112basic_stringIcSt11char_traitsIcESaIcEE13_M_local_dataEv(ptr noundef nonnull align 8 dereferenceable(32) %0)
          to label %.noexc16 unwind label %49

.noexc16:                                         ; preds = %45
  invoke void @_ZNSt7__cxx1112basic_stringIcSt11char_traitsIcESaIcEE12_Alloc_hiderC1EPcRKS3_(ptr noundef nonnull align 8 dereferenceable(8) %0, ptr noundef %46, ptr noundef nonnull align 1 dereferenceable(1) %13)
          to label %.noexc17 unwind label %49

.noexc17:                                         ; preds = %.noexc16
  invoke void @_ZNSt7__cxx1112basic_stringIcSt11char_traitsIcESaIcEE12_M_constructIPKcEEvT_S8_St20forward_iterator_tag(ptr noundef nonnull align 8 dereferenceable(32) %0, ptr noundef nonnull @.str.20, ptr noundef nonnull getelementptr inbounds (i8, ptr @.str.20, i64 5))
          to label %_ZNSt7__cxx1112basic_stringIcSt11char_traitsIcESaIcEEC2IS3_EEPKcRKS3_.exit20 unwind label %47

47:                                               ; preds = %.noexc17
  %48 = landingpad { ptr, i32 }
          cleanup
  call void @_ZNSaIcED2Ev(ptr noundef nonnull align 1 dereferenceable(1) %0) #24
  br label %.body18

_ZNSt7__cxx1112basic_stringIcSt11char_traitsIcESaIcEEC2IS3_EEPKcRKS3_.exit20: ; preds = %.noexc17
  call void @_ZNSaIcED1Ev(ptr noundef nonnull align 1 dereferenceable(1) %13) #24
  br label %59

49:                                               ; preds = %.noexc16, %45
  %50 = landingpad { ptr, i32 }
          cleanup
  br label %.body18

.body18:                                          ; preds = %47, %49
  %eh.lpad-body19 = phi { ptr, i32 } [ %50, %49 ], [ %48, %47 ]
  call void @_ZNSaIcED1Ev(ptr noundef nonnull align 1 dereferenceable(1) %13) #24
  br label %60

51:                                               ; preds = %32
  call void @_ZNSaIcEC1Ev(ptr noundef nonnull align 1 dereferenceable(1) %15) #24
  invoke void @_ZNSt7__cxx1112basic_stringIcSt11char_traitsIcESaIcEEC2IS3_EEPKcRKS3_(ptr noundef nonnull align 8 dereferenceable(32) %14, ptr noundef nonnull @.str.21, ptr noundef nonnull align 1 dereferenceable(1) %15)
          to label %52 unwind label %54

52:                                               ; preds = %51
  invoke void @_ZN10open_spiel15SpielFatalErrorERKNSt7__cxx1112basic_stringIcSt11char_traitsIcESaIcEEE(ptr noundef nonnull align 8 dereferenceable(32) %14) #23
          to label %53 unwind label %56

53:                                               ; preds = %52
  unreachable

54:                                               ; preds = %51
  %55 = landingpad { ptr, i32 }
          cleanup
  br label %58

56:                                               ; preds = %52
  %57 = landingpad { ptr, i32 }
          cleanup
  call void @_ZNSt7__cxx1112basic_stringIcSt11char_traitsIcESaIcEED1Ev(ptr noundef nonnull align 8 dereferenceable(32) %14) #24
  br label %58

58:                                               ; preds = %56, %54
  %.pn = phi { ptr, i32 } [ %57, %56 ], [ %55, %54 ]
  call void @_ZNSaIcED1Ev(ptr noundef nonnull align 1 dereferenceable(1) %15) #24
  br label %60

59:                                               ; preds = %_ZNSt7__cxx1112basic_stringIcSt11char_traitsIcESaIcEEC2IS3_EEPKcRKS3_.exit20, %_ZNSt7__cxx1112basic_stringIcSt11char_traitsIcESaIcEEC2IS3_EEPKcRKS3_.exit15, %_ZNSt7__cxx1112basic_stringIcSt11char_traitsIcESaIcEEC2IS3_EEPKcRKS3_.exit, %_ZN4absl7debian28AlphaNumC2El.exit
  ret void

60:                                               ; preds = %58, %.body18, %.body13, %.body, %30
  %.pn.pn = phi { ptr, i32 } [ %.pn, %58 ], [ %eh.lpad-body19, %.body18 ], [ %eh.lpad-body14, %.body13 ], [ %eh.lpad-body, %.body ], [ %31, %30 ]
  resume { ptr, i32 } %.pn.pn
}